target datalayout = "e-m:e-p270:32:32-p271:32:32-p272:64:64-i64:64-i128:128-f80:128-n8:16:32:64-S128"
target triple = "x86_64-pc-linux-gnu"

%class.Register = type { i32 }

@.str = private unnamed_addr constant [42 x i8] c"src/hotspot/cpu/x86/templateTable_x86.cpp\00", align 1
@_ZN13TemplateTable5_masmE = external global ptr, align 8
@_ZL4rbcp = internal constant %class.Register { i32 13 }, align 4
@_ZL3rax = internal constant %class.Register zeroinitializer, align 4
@_ZL3rbx = internal constant %class.Register { i32 3 }, align 4
@_ZL3rcx = internal constant %class.Register { i32 1 }, align 4
@_ZL3rdx = internal constant %class.Register { i32 2 }, align 4
@.str.14 = private unnamed_addr constant [25 x i8] c"broken method rbx_method\00", align 1
@.str.15 = private unnamed_addr constant [20 x i8] c"broken oop rcx_recv\00", align 1
@PrintInterpreter = external global i8, align 1

; Function Attrs: mustprogress nounwind uwtable
define linkonce_odr hidden void @_ZN14MacroAssembler19_verify_oop_checkedE8RegisterPKcS2_i(ptr noundef nonnull align 8 dereferenceable(40) %0, i32 %1, ptr noundef %2, ptr noundef %3, i32 noundef %4) #1 comdat align 2 {
  %6 = alloca %class.Register, align 4
  %7 = alloca ptr, align 8
  %8 = alloca ptr, align 8
  %9 = alloca ptr, align 8
  %10 = alloca i32, align 4
  %11 = getelementptr inbounds %class.Register, ptr %6, i32 0, i32 0
  store i32 %1, ptr %11, align 4
  store ptr %0, ptr %7, align 8
  store ptr %2, ptr %8, align 8
  store ptr %3, ptr %9, align 8
  store i32 %4, ptr %10, align 4
  ret void
}

; Function Attrs: mustprogress nounwind uwtable
define linkonce_odr hidden void @_ZN14MacroAssembler18_verify_method_ptrE8RegisterPKcS2_i(ptr noundef nonnull align 8 dereferenceable(40) %0, i32 %1, ptr noundef %2, ptr noundef %3, i32 noundef %4) #1 comdat align 2 {
  %6 = alloca %class.Register, align 4
  %7 = alloca ptr, align 8
  %8 = alloca ptr, align 8
  %9 = alloca ptr, align 8
  %10 = alloca i32, align 4
  %11 = getelementptr inbounds %class.Register, ptr %6, i32 0, i32 0
  store i32 %1, ptr %11, align 4
  store ptr %0, ptr %7, align 8
  store ptr %2, ptr %8, align 8
  store ptr %3, ptr %9, align 8
  store i32 %4, ptr %10, align 4
  ret void
}

; Function Attrs: mustprogress nounwind uwtable
define linkonce_odr hidden noundef ptr @_ZN12Disassembler4hookI25InterpreterMacroAssemblerEEPT_PKciS3_(ptr noundef %0, i32 noundef %1, ptr noundef %2) #1 comdat align 2 {
  %4 = alloca ptr, align 8
  %5 = alloca i32, align 4
  %6 = alloca ptr, align 8
  store ptr %0, ptr %4, align 8
  store i32 %1, ptr %5, align 4
  store ptr %2, ptr %6, align 8
  %7 = load i8, ptr @PrintInterpreter, align 1
  %8 = trunc i8 %7 to i1
  br i1 %8, label %9, label %13

9:                                                ; preds = %3
  %10 = load ptr, ptr %4, align 8
  %11 = load i32, ptr %5, align 4
  %12 = load ptr, ptr %6, align 8
  call void @_ZN12Disassembler5_hookEPKciP14MacroAssembler(ptr noundef %10, i32 noundef %11, ptr noundef %12)
  br label %13

13:                                               ; preds = %9, %3
  %14 = load ptr, ptr %6, align 8
  ret ptr %14
}

; Function Attrs: mustprogress nounwind uwtable
define hidden void @_ZN13TemplateTable12invokehandleEi(i32 noundef %0) #1 align 2 {
  %2 = alloca i32, align 4
  %3 = alloca %class.Register, align 4
  %4 = alloca %class.Register, align 4
  %5 = alloca %class.Register, align 4
  %6 = alloca %class.Register, align 4
  %7 = alloca %class.Register, align 4
  %8 = alloca %class.Register, align 4
  %9 = alloca %class.Register, align 4
  %10 = alloca %class.Register, align 4
  %11 = alloca %class.Register, align 4
  %12 = alloca %class.Register, align 4
  %13 = alloca %class.Register, align 4
  %14 = alloca %class.Register, align 4
  %15 = alloca %class.Register, align 4
  %16 = alloca %class.Register, align 4
  %17 = alloca %class.Register, align 4
  %18 = alloca %class.Register, align 4
  %19 = alloca %class.Register, align 4
  %20 = alloca %class.Register, align 4
  %21 = alloca %class.Register, align 4
  %22 = alloca %class.Register, align 4
  store i32 %0, ptr %2, align 4
  call void @_ZN13TemplateTable10transitionE8TosStateS0_(i32 noundef 9, i32 noundef 9)
  call void @llvm.memcpy.p0.p0.i64(ptr align 4 %3, ptr align 4 @_ZL3rbx, i64 4, i1 false)
  call void @llvm.memcpy.p0.p0.i64(ptr align 4 %4, ptr align 4 @_ZL3rax, i64 4, i1 false)
  call void @llvm.memcpy.p0.p0.i64(ptr align 4 %5, ptr align 4 @_ZL3rcx, i64 4, i1 false)
  call void @llvm.memcpy.p0.p0.i64(ptr align 4 %6, ptr align 4 @_ZL3rdx, i64 4, i1 false)
  call void @llvm.memcpy.p0.p0.i64(ptr align 4 %7, ptr align 4 @_ZL3rcx, i64 4, i1 false)
  call void @llvm.memcpy.p0.p0.i64(ptr align 4 %8, ptr align 4 %3, i64 4, i1 false)
  call void @llvm.memcpy.p0.p0.i64(ptr align 4 %9, ptr align 4 %4, i64 4, i1 false)
  call void @llvm.memcpy.p0.p0.i64(ptr align 4 %10, ptr align 4 %6, i64 4, i1 false)
  %23 = getelementptr inbounds %class.Register, ptr %7, i32 0, i32 0
  %24 = load i32, ptr %23, align 4
  %25 = getelementptr inbounds %class.Register, ptr %8, i32 0, i32 0
  %26 = load i32, ptr %25, align 4
  %27 = getelementptr inbounds %class.Register, ptr %9, i32 0, i32 0
  %28 = load i32, ptr %27, align 4
  %29 = getelementptr inbounds %class.Register, ptr %10, i32 0, i32 0
  %30 = load i32, ptr %29, align 4
  call void @_ZN13TemplateTable33load_resolved_method_entry_handleE8RegisterS0_S0_S0_(i32 %24, i32 %26, i32 %28, i32 %30)
  call void @llvm.memcpy.p0.p0.i64(ptr align 4 %11, ptr align 4 @_ZL3rcx, i64 4, i1 false)
  call void @llvm.memcpy.p0.p0.i64(ptr align 4 %12, ptr align 4 %5, i64 4, i1 false)
  call void @llvm.memcpy.p0.p0.i64(ptr align 4 %13, ptr align 4 %6, i64 4, i1 false)
  %31 = getelementptr inbounds %class.Register, ptr %11, i32 0, i32 0
  %32 = load i32, ptr %31, align 4
  %33 = getelementptr inbounds %class.Register, ptr %12, i32 0, i32 0
  %34 = load i32, ptr %33, align 4
  %35 = getelementptr inbounds %class.Register, ptr %13, i32 0, i32 0
  %36 = load i32, ptr %35, align 4
  call void @_ZN13TemplateTable14prepare_invokeE8RegisterS0_S0_(i32 %32, i32 %34, i32 %36)
  %37 = load ptr, ptr @_ZN13TemplateTable5_masmE, align 8
  %38 = call noundef ptr @_ZN12Disassembler4hookI25InterpreterMacroAssemblerEEPT_PKciS3_(ptr noundef @.str, i32 noundef 3988, ptr noundef %37)
  call void @llvm.memcpy.p0.p0.i64(ptr align 4 %14, ptr align 4 %3, i64 4, i1 false)
  %39 = getelementptr inbounds %class.Register, ptr %14, i32 0, i32 0
  %40 = load i32, ptr %39, align 4
  call void @_ZN14MacroAssembler18_verify_method_ptrE8RegisterPKcS2_i(ptr noundef nonnull align 8 dereferenceable(40) %38, i32 %40, ptr noundef @.str.14, ptr noundef @.str, i32 noundef 3988)
  %41 = load ptr, ptr @_ZN13TemplateTable5_masmE, align 8
  %42 = call noundef ptr @_ZN12Disassembler4hookI25InterpreterMacroAssemblerEEPT_PKciS3_(ptr noundef @.str, i32 noundef 3989, ptr noundef %41)
  call void @llvm.memcpy.p0.p0.i64(ptr align 4 %15, ptr align 4 %5, i64 4, i1 false)
  %43 = getelementptr inbounds %class.Register, ptr %15, i32 0, i32 0
  %44 = load i32, ptr %43, align 4
  call void @_ZN14MacroAssembler19_verify_oop_checkedE8RegisterPKcS2_i(ptr noundef nonnull align 8 dereferenceable(40) %42, i32 %44, ptr noundef @.str.15, ptr noundef @.str, i32 noundef 3989)
  %45 = load ptr, ptr @_ZN13TemplateTable5_masmE, align 8
  %46 = call noundef ptr @_ZN12Disassembler4hookI25InterpreterMacroAssemblerEEPT_PKciS3_(ptr noundef @.str, i32 noundef 3990, ptr noundef %45)
  call void @llvm.memcpy.p0.p0.i64(ptr align 4 %16, ptr align 4 %5, i64 4, i1 false)
  %47 = getelementptr inbounds %class.Register, ptr %16, i32 0, i32 0
  %48 = load i32, ptr %47, align 4
  call void @_ZN14MacroAssembler10null_checkE8Registeri(ptr noundef nonnull align 8 dereferenceable(40) %46, i32 %48, i32 noundef -1)
  %49 = load ptr, ptr @_ZN13TemplateTable5_masmE, align 8
  %50 = call noundef ptr @_ZN12Disassembler4hookI25InterpreterMacroAssemblerEEPT_PKciS3_(ptr noundef @.str, i32 noundef 3998, ptr noundef %49)
  call void @llvm.memcpy.p0.p0.i64(ptr align 4 %17, ptr align 4 @_ZL3rax, i64 4, i1 false)
  %51 = getelementptr inbounds %class.Register, ptr %17, i32 0, i32 0
  %52 = load i32, ptr %51, align 4
  call void @_ZN25InterpreterMacroAssembler18profile_final_callE8Register(ptr noundef nonnull align 8 dereferenceable(48) %50, i32 %52)
  %53 = load ptr, ptr @_ZN13TemplateTable5_masmE, align 8
  %54 = call noundef ptr @_ZN12Disassembler4hookI25InterpreterMacroAssemblerEEPT_PKciS3_(ptr noundef @.str, i32 noundef 3999, ptr noundef %53)
  call void @llvm.memcpy.p0.p0.i64(ptr align 4 %18, ptr align 4 @_ZL3rdx, i64 4, i1 false)
  call void @llvm.memcpy.p0.p0.i64(ptr align 4 %19, ptr align 4 %3, i64 4, i1 false)
  call void @llvm.memcpy.p0.p0.i64(ptr align 4 %20, ptr align 4 @_ZL4rbcp, i64 4, i1 false)
  %55 = getelementptr inbounds %class.Register, ptr %18, i32 0, i32 0
  %56 = load i32, ptr %55, align 4
  %57 = getelementptr inbounds %class.Register, ptr %19, i32 0, i32 0
  %58 = load i32, ptr %57, align 4
  %59 = getelementptr inbounds %class.Register, ptr %20, i32 0, i32 0
  %60 = load i32, ptr %59, align 4
  call void @_ZN25InterpreterMacroAssembler22profile_arguments_typeE8RegisterS0_S0_b(ptr noundef nonnull align 8 dereferenceable(48) %54, i32 %56, i32 %58, i32 %60, i1 noundef zeroext true)
  %61 = load ptr, ptr @_ZN13TemplateTable5_masmE, align 8
  %62 = call noundef ptr @_ZN12Disassembler4hookI25InterpreterMacroAssemblerEEPT_PKciS3_(ptr noundef @.str, i32 noundef 4001, ptr noundef %61)
  call void @llvm.memcpy.p0.p0.i64(ptr align 4 %21, ptr align 4 %3, i64 4, i1 false)
  call void @llvm.memcpy.p0.p0.i64(ptr align 4 %22, ptr align 4 @_ZL3rdx, i64 4, i1 false)
  %63 = getelementptr inbounds %class.Register, ptr %21, i32 0, i32 0
  %64 = load i32, ptr %63, align 4
  %65 = getelementptr inbounds %class.Register, ptr %22, i32 0, i32 0
  %66 = load i32, ptr %65, align 4
  call void @_ZN25InterpreterMacroAssembler21jump_from_interpretedE8RegisterS0_(ptr noundef nonnull align 8 dereferenceable(48) %62, i32 %64, i32 %66)
  ret void
}