; Function Attrs: mustprogress nounwind uwtable
define hidden void @_ZN13TemplateTable12invokehandleEi(i32 noundef %0) local_unnamed_addr #0 align 2 {
  tail call void @_ZN13TemplateTable10transitionE8TosStateS0_(i32 noundef 9, i32 noundef 9) #8
  tail call void @_ZN13TemplateTable33load_resolved_method_entry_handleE8RegisterS0_S0_S0_(i32 1, i32 3, i32 0, i32 2)
  tail call void @_ZN13TemplateTable14prepare_invokeE8RegisterS0_S0_(i32 1, i32 1, i32 2)
  %2 = load i8, ptr @PrintInterpreter, align 1
  %3 = trunc i8 %2 to i1
  br i1 %3, label %4, label %_ZN12Disassembler4hookI25InterpreterMacroAssemblerEEPT_PKciS3_.exit

4:                                                ; preds = %1
  %5 = load ptr, ptr @_ZN13TemplateTable5_masmE, align 8
  tail call void @_ZN12Disassembler5_hookEPKciP14MacroAssembler(ptr noundef nonnull @.str, i32 noundef 3988, ptr noundef %5) #8
  %.pre = load i8, ptr @PrintInterpreter, align 1
  br label %_ZN12Disassembler4hookI25InterpreterMacroAssemblerEEPT_PKciS3_.exit

_ZN12Disassembler4hookI25InterpreterMacroAssemblerEEPT_PKciS3_.exit: ; preds = %1, %4
  %6 = phi i8 [ %2, %1 ], [ %.pre, %4 ]
  %7 = trunc i8 %6 to i1
  br i1 %7, label %8, label %_ZN12Disassembler4hookI25InterpreterMacroAssemblerEEPT_PKciS3_.exit26

8:                                                ; preds = %_ZN12Disassembler4hookI25InterpreterMacroAssemblerEEPT_PKciS3_.exit
  %9 = load ptr, ptr @_ZN13TemplateTable5_masmE, align 8
  tail call void @_ZN12Disassembler5_hookEPKciP14MacroAssembler(ptr noundef nonnull @.str, i32 noundef 3989, ptr noundef %9) #8
  %.pre31 = load i8, ptr @PrintInterpreter, align 1
  br label %_ZN12Disassembler4hookI25InterpreterMacroAssemblerEEPT_PKciS3_.exit26

_ZN12Disassembler4hookI25InterpreterMacroAssemblerEEPT_PKciS3_.exit26: ; preds = %_ZN12Disassembler4hookI25InterpreterMacroAssemblerEEPT_PKciS3_.exit, %8
  %10 = phi i8 [ %6, %_ZN12Disassembler4hookI25InterpreterMacroAssemblerEEPT_PKciS3_.exit ], [ %.pre31, %8 ]
  %11 = load ptr, ptr @_ZN13TemplateTable5_masmE, align 8
  %12 = trunc i8 %10 to i1
  br i1 %12, label %13, label %_ZN12Disassembler4hookI25InterpreterMacroAssemblerEEPT_PKciS3_.exit27

13:                                               ; preds = %_ZN12Disassembler4hookI25InterpreterMacroAssemblerEEPT_PKciS3_.exit26
  tail call void @_ZN12Disassembler5_hookEPKciP14MacroAssembler(ptr noundef nonnull @.str, i32 noundef 3990, ptr noundef %11) #8
  br label %_ZN12Disassembler4hookI25InterpreterMacroAssemblerEEPT_PKciS3_.exit27

_ZN12Disassembler4hookI25InterpreterMacroAssemblerEEPT_PKciS3_.exit27: ; preds = %_ZN12Disassembler4hookI25InterpreterMacroAssemblerEEPT_PKciS3_.exit26, %13
  tail call void @_ZN14MacroAssembler10null_checkE8Registeri(ptr noundef nonnull align 8 dereferenceable(40) %11, i32 1, i32 noundef -1) #8
  %14 = load ptr, ptr @_ZN13TemplateTable5_masmE, align 8
  %15 = load i8, ptr @PrintInterpreter, align 1
  %16 = trunc i8 %15 to i1
  br i1 %16, label %17, label %_ZN12Disassembler4hookI25InterpreterMacroAssemblerEEPT_PKciS3_.exit28

17:                                               ; preds = %_ZN12Disassembler4hookI25InterpreterMacroAssemblerEEPT_PKciS3_.exit27
  tail call void @_ZN12Disassembler5_hookEPKciP14MacroAssembler(ptr noundef nonnull @.str, i32 noundef 3998, ptr noundef %14) #8
  br label %_ZN12Disassembler4hookI25InterpreterMacroAssemblerEEPT_PKciS3_.exit28

_ZN12Disassembler4hookI25InterpreterMacroAssemblerEEPT_PKciS3_.exit28: ; preds = %_ZN12Disassembler4hookI25InterpreterMacroAssemblerEEPT_PKciS3_.exit27, %17
  tail call void @_ZN25InterpreterMacroAssembler18profile_final_callE8Register(ptr noundef nonnull align 8 dereferenceable(48) %14, i32 0) #8
  %18 = load ptr, ptr @_ZN13TemplateTable5_masmE, align 8
  %19 = load i8, ptr @PrintInterpreter, align 1
  %20 = trunc i8 %19 to i1
  br i1 %20, label %21, label %_ZN12Disassembler4hookI25InterpreterMacroAssemblerEEPT_PKciS3_.exit29

21:                                               ; preds = %_ZN12Disassembler4hookI25InterpreterMacroAssemblerEEPT_PKciS3_.exit28
  tail call void @_ZN12Disassembler5_hookEPKciP14MacroAssembler(ptr noundef nonnull @.str, i32 noundef 3999, ptr noundef %18) #8
  br label %_ZN12Disassembler4hookI25InterpreterMacroAssemblerEEPT_PKciS3_.exit29

_ZN12Disassembler4hookI25InterpreterMacroAssemblerEEPT_PKciS3_.exit29: ; preds = %_ZN12Disassembler4hookI25InterpreterMacroAssemblerEEPT_PKciS3_.exit28, %21
  tail call void @_ZN25InterpreterMacroAssembler22profile_arguments_typeE8RegisterS0_S0_b(ptr noundef nonnull align 8 dereferenceable(48) %18, i32 2, i32 3, i32 13, i1 noundef zeroext true) #8
  %22 = load ptr, ptr @_ZN13TemplateTable5_masmE, align 8
  %23 = load i8, ptr @PrintInterpreter, align 1
  %24 = trunc i8 %23 to i1
  br i1 %24, label %25, label %_ZN12Disassembler4hookI25InterpreterMacroAssemblerEEPT_PKciS3_.exit30

25:                                               ; preds = %_ZN12Disassembler4hookI25InterpreterMacroAssemblerEEPT_PKciS3_.exit29
  tail call void @_ZN12Disassembler5_hookEPKciP14MacroAssembler(ptr noundef nonnull @.str, i32 noundef 4001, ptr noundef %22) #8
  br label %_ZN12Disassembler4hookI25InterpreterMacroAssemblerEEPT_PKciS3_.exit30

_ZN12Disassembler4hookI25InterpreterMacroAssemblerEEPT_PKciS3_.exit30: ; preds = %_ZN12Disassembler4hookI25InterpreterMacroAssemblerEEPT_PKciS3_.exit29, %25
  tail call void @_ZN25InterpreterMacroAssembler21jump_from_interpretedE8RegisterS0_(ptr noundef nonnull align 8 dereferenceable(48) %22, i32 3, i32 2) #8
  ret void
}